target datalayout = "e-m:e-p270:32:32-p271:32:32-p272:64:64-i64:64-i128:128-f80:128-n8:16:32:64-S128"
target triple = "x86_64-pc-linux-gnu"

%struct.Vmem = type { ptr, i64, i64 }
%struct.BEValue = type { i8, i32, ptr, ptr, ptr }
%union.SourceSpan = type { i64 }
%struct.Ast_ = type { %union.SourceSpan, i32, i8, %union.anon.61 }
%union.anon.61 = type { %struct.AstDocDirective_ }
%struct.AstDocDirective_ = type { i8, %union.anon.64 }
%union.anon.64 = type { %struct.anon.65 }
%struct.anon.65 = type { ptr, %union.SourceSpan, i8 }
%struct.FlowCommon = type { i32, i8 }
%struct.AstSwitchStmt = type { %struct.FlowCommon, %union.anon.80 }
%union.anon.80 = type { %struct.anon.81 }
%struct.anon.81 = type { i32, i32, ptr, ptr }
%struct.AstCaseStmt = type { i32, i32, ptr, ptr }
%struct.anon.82 = type { ptr, ptr, ptr }
%struct.Label = type { ptr, %union.SourceSpan }
%struct.AstNextcaseStmt = type { i32, %union.anon.77 }
%union.anon.77 = type { %struct.anon.78 }
%struct.anon.78 = type { %struct.Label, i32, i8 }
%struct.anon.79 = type { i32, ptr }

@.str.2 = private unnamed_addr constant [4 x i8] c"jmp\00", align 1
@ast_arena = external global %struct.Vmem, align 8

; Function Attrs: nounwind uwtable
define dso_local void @llvm_emit_jmp(ptr noundef %0, ptr noundef %1) #0 {
  %3 = alloca ptr, align 8
  %4 = alloca ptr, align 8
  %5 = alloca ptr, align 8
  store ptr %0, ptr %3, align 8
  store ptr %1, ptr %4, align 8
  %6 = load ptr, ptr %3, align 8
  %7 = load ptr, ptr %4, align 8
  call void @llvm_emit_br(ptr noundef %6, ptr noundef %7)
  %8 = load ptr, ptr %3, align 8
  %9 = call ptr @llvm_basic_block_new(ptr noundef %8, ptr noundef @.str.2)
  store ptr %9, ptr %5, align 8
  %10 = load ptr, ptr %3, align 8
  %11 = load ptr, ptr %5, align 8
  call void @llvm_emit_block(ptr noundef %10, ptr noundef %11)
  ret void
}

; Function Attrs: nounwind uwtable
define internal ptr @astptr(i32 noundef %0) #0 {
  %2 = alloca i32, align 4
  store i32 %0, ptr %2, align 4
  %3 = load ptr, ptr @ast_arena, align 8
  %4 = load i32, ptr %2, align 4
  %5 = zext i32 %4 to i64
  %6 = getelementptr inbounds %struct.Ast_, ptr %3, i64 %5
  ret ptr %6
}

; Function Attrs: nounwind uwtable
define dso_local void @gencontext_emit_next_stmt(ptr noundef %0, ptr noundef %1) #0 {
  %3 = alloca ptr, align 8
  %4 = alloca ptr, align 8
  %5 = alloca ptr, align 8
  %6 = alloca ptr, align 8
  %7 = alloca ptr, align 8
  %8 = alloca i32, align 4
  %9 = alloca ptr, align 8
  %10 = alloca i32, align 4
  %11 = alloca ptr, align 8
  %12 = alloca ptr, align 8
  %13 = alloca ptr, align 8
  %14 = alloca %struct.BEValue, align 8
  store ptr %0, ptr %11, align 8
  store ptr %1, ptr %12, align 8
  %15 = load ptr, ptr %12, align 8
  %16 = getelementptr inbounds %struct.Ast_, ptr %15, i32 0, i32 3
  %17 = getelementptr inbounds %struct.AstNextcaseStmt, ptr %16, i32 0, i32 1
  %18 = getelementptr inbounds %struct.anon.79, ptr %17, i32 0, i32 0
  %19 = load i32, ptr %18, align 8
  %20 = call ptr @astptr(i32 noundef %19)
  store ptr %20, ptr %13, align 8
  %21 = load ptr, ptr %13, align 8
  %22 = getelementptr inbounds %struct.Ast_, ptr %21, i32 0, i32 2
  %23 = load i8, ptr %22, align 4
  %24 = zext i8 %23 to i32
  %25 = icmp ne i32 %24, 27
  br i1 %25, label %26, label %51

26:                                               ; preds = %2
  %27 = load ptr, ptr %11, align 8
  %28 = load ptr, ptr %12, align 8
  %29 = getelementptr inbounds %struct.Ast_, ptr %28, i32 0, i32 3
  %30 = getelementptr inbounds %struct.AstNextcaseStmt, ptr %29, i32 0, i32 0
  %31 = load i32, ptr %30, align 8
  store ptr %27, ptr %7, align 8
  store i32 %31, ptr %8, align 4
  br label %32

32:                                               ; preds = %35, %26
  %33 = load i32, ptr %8, align 4
  %34 = icmp ne i32 %33, 0
  br i1 %34, label %35, label %45

35:                                               ; preds = %32
  %36 = load ptr, ptr %7, align 8
  store ptr %8, ptr %5, align 8
  %37 = load ptr, ptr %5, align 8
  %38 = load i32, ptr %37, align 4
  %39 = call ptr @astptr(i32 noundef %38)
  store ptr %39, ptr %6, align 8
  %40 = load ptr, ptr %6, align 8
  %41 = getelementptr inbounds %struct.Ast_, ptr %40, i32 0, i32 1
  %42 = load i32, ptr %41, align 8
  %43 = load ptr, ptr %5, align 8
  store i32 %42, ptr %43, align 4
  %44 = load ptr, ptr %6, align 8
  call void @llvm_emit_stmt(ptr noundef %36, ptr noundef %44)
  br label %32, !llvm.loop !19

45:                                               ; preds = %32
  %46 = load ptr, ptr %11, align 8
  %47 = load ptr, ptr %13, align 8
  %48 = getelementptr inbounds %struct.Ast_, ptr %47, i32 0, i32 3
  %49 = getelementptr inbounds %struct.AstCaseStmt, ptr %48, i32 0, i32 3
  %50 = load ptr, ptr %49, align 8
  call void @llvm_emit_jmp(ptr noundef %46, ptr noundef %50)
  br label %90

51:                                               ; preds = %2
  %52 = load ptr, ptr %11, align 8
  %53 = load ptr, ptr %12, align 8
  %54 = getelementptr inbounds %struct.Ast_, ptr %53, i32 0, i32 3
  %55 = getelementptr inbounds %struct.AstNextcaseStmt, ptr %54, i32 0, i32 1
  %56 = getelementptr inbounds %struct.anon.79, ptr %55, i32 0, i32 1
  %57 = load ptr, ptr %56, align 8
  call void @llvm_emit_expr(ptr noundef %52, ptr noundef %14, ptr noundef %57)
  %58 = load ptr, ptr %11, align 8
  %59 = load ptr, ptr %13, align 8
  %60 = getelementptr inbounds %struct.Ast_, ptr %59, i32 0, i32 3
  %61 = getelementptr inbounds %struct.AstSwitchStmt, ptr %60, i32 0, i32 1
  %62 = getelementptr inbounds %struct.anon.82, ptr %61, i32 0, i32 2
  %63 = load ptr, ptr %62, align 8
  %64 = call ptr @llvm_store(ptr noundef %58, ptr noundef %63, ptr noundef %14)
  %65 = load ptr, ptr %11, align 8
  %66 = load ptr, ptr %12, align 8
  %67 = getelementptr inbounds %struct.Ast_, ptr %66, i32 0, i32 3
  %68 = getelementptr inbounds %struct.AstNextcaseStmt, ptr %67, i32 0, i32 0
  %69 = load i32, ptr %68, align 8
  store ptr %65, ptr %9, align 8
  store i32 %69, ptr %10, align 4
  br label %70

70:                                               ; preds = %73, %51
  %71 = load i32, ptr %10, align 4
  %72 = icmp ne i32 %71, 0
  br i1 %72, label %73, label %83

73:                                               ; preds = %70
  %74 = load ptr, ptr %9, align 8
  store ptr %10, ptr %3, align 8
  %75 = load ptr, ptr %3, align 8
  %76 = load i32, ptr %75, align 4
  %77 = call ptr @astptr(i32 noundef %76)
  store ptr %77, ptr %4, align 8
  %78 = load ptr, ptr %4, align 8
  %79 = getelementptr inbounds %struct.Ast_, ptr %78, i32 0, i32 1
  %80 = load i32, ptr %79, align 8
  %81 = load ptr, ptr %3, align 8
  store i32 %80, ptr %81, align 4
  %82 = load ptr, ptr %4, align 8
  call void @llvm_emit_stmt(ptr noundef %74, ptr noundef %82)
  br label %70, !llvm.loop !20

83:                                               ; preds = %70
  %84 = load ptr, ptr %11, align 8
  %85 = load ptr, ptr %13, align 8
  %86 = getelementptr inbounds %struct.Ast_, ptr %85, i32 0, i32 3
  %87 = getelementptr inbounds %struct.AstSwitchStmt, ptr %86, i32 0, i32 1
  %88 = getelementptr inbounds %struct.anon.82, ptr %87, i32 0, i32 0
  %89 = load ptr, ptr %88, align 8
  call void @llvm_emit_jmp(ptr noundef %84, ptr noundef %89)
  br label %90

90:                                               ; preds = %83, %45
  ret void
}