; Function Attrs: nounwind uwtable
define dso_local void @gencontext_emit_next_stmt(ptr noundef %0, ptr nocapture noundef readonly %1) local_unnamed_addr #0 {
  %3 = alloca %struct.BEValue, align 8
  %4 = getelementptr inbounds i8, ptr %1, i64 16
  %5 = getelementptr inbounds i8, ptr %1, i64 24
  %6 = load i32, ptr %5, align 8
  %7 = load ptr, ptr @ast_arena, align 8
  %8 = zext i32 %6 to i64
  %9 = getelementptr inbounds %struct.Ast_, ptr %7, i64 %8
  %10 = getelementptr inbounds i8, ptr %9, i64 12
  %11 = load i8, ptr %10, align 4
  %.not = icmp eq i8 %11, 27
  br i1 %.not, label %22, label %12

12:                                               ; preds = %2
  %13 = load i32, ptr %4, align 8
  %.not2930 = icmp eq i32 %13, 0
  br i1 %.not2930, label %._crit_edge, label %.lr.ph

.lr.ph:                                           ; preds = %12, %.lr.ph
  %.02731 = phi i32 [ %18, %.lr.ph ], [ %13, %12 ]
  %14 = load ptr, ptr @ast_arena, align 8
  %15 = zext i32 %.02731 to i64
  %16 = getelementptr inbounds %struct.Ast_, ptr %14, i64 %15
  %17 = getelementptr inbounds i8, ptr %16, i64 8
  %18 = load i32, ptr %17, align 8
  tail call void @llvm_emit_stmt(ptr noundef %0, ptr noundef nonnull %16)
  %.not29 = icmp eq i32 %18, 0
  br i1 %.not29, label %._crit_edge, label %.lr.ph, !llvm.loop !26

._crit_edge:                                      ; preds = %.lr.ph, %12
  %19 = getelementptr inbounds i8, ptr %9, i64 32
  %20 = load ptr, ptr %19, align 8
  tail call void @llvm_emit_br(ptr noundef %0, ptr noundef %20) #9
  %21 = tail call ptr @llvm_basic_block_new(ptr noundef %0, ptr noundef nonnull @.str.2) #9
  tail call void @llvm_emit_block(ptr noundef %0, ptr noundef %21) #9
  br label %37

22:                                               ; preds = %2
  %23 = getelementptr inbounds i8, ptr %1, i64 32
  %24 = load ptr, ptr %23, align 8
  call void @llvm_emit_expr(ptr noundef %0, ptr noundef nonnull %3, ptr noundef %24) #9
  %25 = getelementptr inbounds i8, ptr %9, i64 24
  %26 = getelementptr inbounds i8, ptr %9, i64 40
  %27 = load ptr, ptr %26, align 8
  %28 = call ptr @llvm_store(ptr noundef %0, ptr noundef %27, ptr noundef nonnull %3) #9
  %29 = load i32, ptr %4, align 8
  %.not2832 = icmp eq i32 %29, 0
  br i1 %.not2832, label %._crit_edge36, label %.lr.ph35

.lr.ph35:                                         ; preds = %22, %.lr.ph35
  %.033 = phi i32 [ %34, %.lr.ph35 ], [ %29, %22 ]
  %30 = load ptr, ptr @ast_arena, align 8
  %31 = zext i32 %.033 to i64
  %32 = getelementptr inbounds %struct.Ast_, ptr %30, i64 %31
  %33 = getelementptr inbounds i8, ptr %32, i64 8
  %34 = load i32, ptr %33, align 8
  call void @llvm_emit_stmt(ptr noundef %0, ptr noundef nonnull %32)
  %.not28 = icmp eq i32 %34, 0
  br i1 %.not28, label %._crit_edge36, label %.lr.ph35, !llvm.loop !27

._crit_edge36:                                    ; preds = %.lr.ph35, %22
  %35 = load ptr, ptr %25, align 8
  call void @llvm_emit_br(ptr noundef %0, ptr noundef %35) #9
  %36 = call ptr @llvm_basic_block_new(ptr noundef %0, ptr noundef nonnull @.str.2) #9
  call void @llvm_emit_block(ptr noundef %0, ptr noundef %36) #9
  br label %37

37:                                               ; preds = %._crit_edge36, %._crit_edge
  ret void
}